; ModuleID = '31/1094.c'
source_filename = "31/1094.c"
target datalayout = "e-m:e-p270:32:32-p271:32:32-p272:64:64-i64:64-f80:128-n8:16:32:64-S128"
target triple = "x86_64-pc-linux-gnu"

%struct.stu = type { [20 x i8], [20 x i8], i8, i32, float, [20 x i8], %struct.stu* }

@end = dso_local global [4 x i8] c"end\00", align 1
@.str = private unnamed_addr constant [3 x i8] c"%s\00", align 1
@.str.1 = private unnamed_addr constant [16 x i8] c"%s %c %d %g %s\0A\00", align 1
@.str.2 = private unnamed_addr constant [19 x i8] c"%s %s %c %d %g %s\0A\00", align 1

; Function Attrs: noinline nounwind uwtable
define dso_local i32 @main() #0 {
  %1 = alloca i32, align 4
  %2 = alloca %struct.stu*, align 8
  %3 = alloca %struct.stu*, align 8
  %4 = alloca %struct.stu, align 8
  store i32 0, i32* %1, align 4
  store %struct.stu* null, %struct.stu** %3, align 8
  store %struct.stu* null, %struct.stu** %2, align 8
  br label %5

5:                                                ; preds = %13, %0
  %6 = getelementptr inbounds %struct.stu, %struct.stu* %4, i32 0, i32 0
  %7 = getelementptr inbounds [20 x i8], [20 x i8]* %6, i64 0, i64 0
  %8 = call i32 (i8*, ...) @__isoc99_scanf(i8* getelementptr inbounds ([3 x i8], [3 x i8]* @.str, i64 0, i64 0), i8* %7)
  %9 = getelementptr inbounds %struct.stu, %struct.stu* %4, i32 0, i32 0
  %10 = getelementptr inbounds [20 x i8], [20 x i8]* %9, i64 0, i64 0
  %11 = call i32 @strcmp(i8* %10, i8* getelementptr inbounds ([4 x i8], [4 x i8]* @end, i64 0, i64 0)) #5
  %12 = icmp ne i32 %11, 0
  br i1 %12, label %13, label %31

13:                                               ; preds = %5
  %14 = getelementptr inbounds %struct.stu, %struct.stu* %4, i32 0, i32 1
  %15 = getelementptr inbounds [20 x i8], [20 x i8]* %14, i64 0, i64 0
  %16 = getelementptr inbounds %struct.stu, %struct.stu* %4, i32 0, i32 2
  %17 = getelementptr inbounds %struct.stu, %struct.stu* %4, i32 0, i32 3
  %18 = getelementptr inbounds %struct.stu, %struct.stu* %4, i32 0, i32 4
  %19 = getelementptr inbounds %struct.stu, %struct.stu* %4, i32 0, i32 5
  %20 = getelementptr inbounds [20 x i8], [20 x i8]* %19, i64 0, i64 0
  %21 = call i32 (i8*, ...) @__isoc99_scanf(i8* getelementptr inbounds ([16 x i8], [16 x i8]* @.str.1, i64 0, i64 0), i8* %15, i8* %16, i32* %17, float* %18, i8* %20)
  %22 = call noalias i8* @malloc(i64 100) #6
  %23 = bitcast i8* %22 to %struct.stu*
  store %struct.stu* %23, %struct.stu** %2, align 8
  %24 = load %struct.stu*, %struct.stu** %2, align 8
  %25 = bitcast %struct.stu* %24 to i8*
  %26 = bitcast %struct.stu* %4 to i8*
  call void @llvm.memcpy.p0i8.p0i8.i64(i8* align 8 %25, i8* align 8 %26, i64 80, i1 false)
  %27 = load %struct.stu*, %struct.stu** %3, align 8
  %28 = load %struct.stu*, %struct.stu** %2, align 8
  %29 = getelementptr inbounds %struct.stu, %struct.stu* %28, i32 0, i32 6
  store %struct.stu* %27, %struct.stu** %29, align 8
  %30 = load %struct.stu*, %struct.stu** %2, align 8
  store %struct.stu* %30, %struct.stu** %3, align 8
  br label %5

31:                                               ; preds = %5
  br label %32

32:                                               ; preds = %35, %31
  %33 = load %struct.stu*, %struct.stu** %2, align 8
  %34 = icmp ne %struct.stu* %33, null
  br i1 %34, label %35, label %60

35:                                               ; preds = %32
  %36 = load %struct.stu*, %struct.stu** %2, align 8
  %37 = getelementptr inbounds %struct.stu, %struct.stu* %36, i32 0, i32 0
  %38 = getelementptr inbounds [20 x i8], [20 x i8]* %37, i64 0, i64 0
  %39 = load %struct.stu*, %struct.stu** %2, align 8
  %40 = getelementptr inbounds %struct.stu, %struct.stu* %39, i32 0, i32 1
  %41 = getelementptr inbounds [20 x i8], [20 x i8]* %40, i64 0, i64 0
  %42 = load %struct.stu*, %struct.stu** %2, align 8
  %43 = getelementptr inbounds %struct.stu, %struct.stu* %42, i32 0, i32 2
  %44 = load i8, i8* %43, align 8
  %45 = sext i8 %44 to i32
  %46 = load %struct.stu*, %struct.stu** %2, align 8
  %47 = getelementptr inbounds %struct.stu, %struct.stu* %46, i32 0, i32 3
  %48 = load i32, i32* %47, align 4
  %49 = load %struct.stu*, %struct.stu** %2, align 8
  %50 = getelementptr inbounds %struct.stu, %struct.stu* %49, i32 0, i32 4
  %51 = load float, float* %50, align 8
  %52 = fpext float %51 to double
  %53 = load %struct.stu*, %struct.stu** %2, align 8
  %54 = getelementptr inbounds %struct.stu, %struct.stu* %53, i32 0, i32 5
  %55 = getelementptr inbounds [20 x i8], [20 x i8]* %54, i64 0, i64 0
  %56 = call i32 (i8*, ...) @printf(i8* getelementptr inbounds ([19 x i8], [19 x i8]* @.str.2, i64 0, i64 0), i8* %38, i8* %41, i32 %45, i32 %48, double %52, i8* %55)
  %57 = load %struct.stu*, %struct.stu** %2, align 8
  %58 = getelementptr inbounds %struct.stu, %struct.stu* %57, i32 0, i32 6
  %59 = load %struct.stu*, %struct.stu** %58, align 8
  store %struct.stu* %59, %struct.stu** %2, align 8
  br label %32

60:                                               ; preds = %32
  %61 = load i32, i32* %1, align 4
  ret i32 %61
}

declare dso_local i32 @__isoc99_scanf(i8*, ...) #1

; Function Attrs: nounwind readonly
declare dso_local i32 @strcmp(i8*, i8*) #2

; Function Attrs: nounwind
declare dso_local noalias i8* @malloc(i64) #3

; Function Attrs: argmemonly nounwind willreturn
declare void @llvm.memcpy.p0i8.p0i8.i64(i8* noalias nocapture writeonly, i8* noalias nocapture readonly, i64, i1 immarg) #4

declare dso_local i32 @printf(i8*, ...) #1


!llvm.module.flags = !{!0}
!llvm.ident = !{!1}

!0 = !{i32 1, !"wchar_size", i32 4}
!1 = !{!"clang version 10.0.0-4ubuntu1 "}
